; Function Attrs: mustprogress uwtable
define void @_ZN4lean21report_profiling_timeERKNSt7__cxx1112basic_stringIcSt11char_traitsIcESaIcEEENSt6chrono8durationIdSt5ratioILl1ELl1EEEE(ptr noundef nonnull align 8 dereferenceable(32) %0, double %1) local_unnamed_addr #2 personality ptr @__gxx_personality_v0 {
  %3 = load ptr, ptr @_ZN4leanL17g_cum_times_mutexE, align 8, !tbaa !14
  %4 = tail call noundef i32 @pthread_mutex_lock(ptr noundef nonnull align 8 dereferenceable(40) %3) #22
  %.not.i.i = icmp eq i32 %4, 0
  br i1 %.not.i.i, label %_ZNSt10lock_guardISt5mutexEC2ERS0_.exit, label %5

5:                                                ; preds = %2
  tail call void @_ZSt20__throw_system_errori(i32 noundef %4) #23
  unreachable

_ZNSt10lock_guardISt5mutexEC2ERS0_.exit:          ; preds = %2
  %6 = load ptr, ptr @_ZN4leanL11g_cum_timesB5cxx11E, align 8, !tbaa !16
  %7 = invoke noundef nonnull align 8 dereferenceable(8) ptr @_ZNSt3mapINSt7__cxx1112basic_stringIcSt11char_traitsIcESaIcEEENSt6chrono8durationIdSt5ratioILl1ELl1EEEESt4lessIS5_ESaISt4pairIKS5_SA_EEEixERSE_(ptr noundef nonnull align 8 dereferenceable(48) %6, ptr noundef nonnull align 8 dereferenceable(32) %0)
          to label %8 unwind label %12

8:                                                ; preds = %_ZNSt10lock_guardISt5mutexEC2ERS0_.exit
  %9 = load double, ptr %7, align 8, !tbaa !18
  %10 = fadd double %1, %9
  store double %10, ptr %7, align 8, !tbaa !18
  %11 = tail call noundef i32 @pthread_mutex_unlock(ptr noundef nonnull align 8 dereferenceable(40) %3) #22
  ret void

12:                                               ; preds = %_ZNSt10lock_guardISt5mutexEC2ERS0_.exit
  %13 = landingpad { ptr, i32 }
          cleanup
  %14 = tail call noundef i32 @pthread_mutex_unlock(ptr noundef nonnull align 8 dereferenceable(40) %3) #22
  resume { ptr, i32 } %13
}